; Function Attrs: inlinehint nounwind uwtable
define internal fastcc ptr @_() unnamed_addr #5 {
  %1 = load i32, ptr @git_gettext_enabled, align 4, !tbaa !4
  %.not = icmp eq i32 %1, 0
  br i1 %.not, label %4, label %2

2:                                                ; preds = %0
  %3 = tail call ptr @dcgettext(ptr noundef null, ptr noundef nonnull @.str.10, i32 noundef 5) #10
  br label %4

4:                                                ; preds = %0, %2
  %.0 = phi ptr [ %3, %2 ], [ @.str.10, %0 ]
  ret ptr %.0
}